target datalayout = "e-m:e-p270:32:32-p271:32:32-p272:64:64-i64:64-i128:128-f80:128-n8:16:32:64-S128"
target triple = "x86_64-pc-linux-gnu"

%struct.URLContext = type { ptr, ptr, ptr, ptr, i32, i32, i32, i32, %struct.AVIOInterruptCB, i64, ptr, ptr, i32 }
%struct.AVIOInterruptCB = type { ptr, ptr }
%struct.HTTPContext = type { ptr, ptr, [8192 x i8], ptr, ptr, i32, i32, i64, i32, i64, i64, i64, ptr, ptr, %struct.HTTPAuthState, %struct.HTTPAuthState, ptr, ptr, ptr, ptr, ptr, ptr, ptr, i32, i32, i32, i32, i32, i32, ptr, i32, i32, i32, ptr, ptr, i32, i64, i64, ptr, ptr, ptr, i32, %struct.z_stream_s, ptr, ptr, i32, ptr, i32, i32, i32, i32, i32, ptr, i32, ptr, i32, i32, i32, i32, i32, i64, ptr, ptr, i64, i32, i32, i32, i32 }
%struct.HTTPAuthState = type { i32, [200 x i8], %struct.DigestParams, i32 }
%struct.DigestParams = type { [300 x i8], [10 x i8], [30 x i8], [300 x i8], [10 x i8], i32 }
%struct.z_stream_s = type { ptr, i32, i64, ptr, i32, i64, ptr, ptr, ptr, ptr, ptr, i32, i64, i64 }

@.str.139 = private unnamed_addr constant [20 x i8] c"icy_metadata_packet\00", align 1
@.str.140 = private unnamed_addr constant [3 x i8] c"='\00", align 1
@.str.141 = private unnamed_addr constant [3 x i8] c"';\00", align 1
@.str.142 = private unnamed_addr constant [28 x i8] c"Metadata update for %s: %s\0A\00", align 1

; Function Attrs: nounwind uwtable
define internal void @update_metadata(ptr noundef %0, ptr noundef %1) #0 {
  %3 = alloca ptr, align 8
  %4 = alloca ptr, align 8
  %5 = alloca ptr, align 8
  %6 = alloca ptr, align 8
  %7 = alloca ptr, align 8
  %8 = alloca ptr, align 8
  %9 = alloca ptr, align 8
  store ptr %0, ptr %3, align 8, !tbaa !4
  store ptr %1, ptr %4, align 8, !tbaa !17
  call void @llvm.lifetime.start.p0(i64 8, ptr %5) #11
  call void @llvm.lifetime.start.p0(i64 8, ptr %6) #11
  call void @llvm.lifetime.start.p0(i64 8, ptr %7) #11
  call void @llvm.lifetime.start.p0(i64 8, ptr %8) #11
  %10 = load ptr, ptr %4, align 8, !tbaa !17
  store ptr %10, ptr %8, align 8, !tbaa !17
  call void @llvm.lifetime.start.p0(i64 8, ptr %9) #11
  %11 = load ptr, ptr %3, align 8, !tbaa !4
  %12 = getelementptr inbounds nuw %struct.URLContext, ptr %11, i32 0, i32 2
  %13 = load ptr, ptr %12, align 8, !tbaa !9
  store ptr %13, ptr %9, align 8, !tbaa !21
  br label %14

14:                                               ; preds = %31, %2
  %15 = load ptr, ptr %8, align 8, !tbaa !17
  %16 = load i8, ptr %15, align 1, !tbaa !64
  %17 = icmp ne i8 %16, 0
  br i1 %17, label %18, label %46

18:                                               ; preds = %14
  %19 = load ptr, ptr %8, align 8, !tbaa !17
  store ptr %19, ptr %5, align 8, !tbaa !17
  %20 = load ptr, ptr %5, align 8, !tbaa !17
  %21 = call ptr @strstr(ptr noundef %20, ptr noundef @.str.140) #12
  store ptr %21, ptr %6, align 8, !tbaa !17
  %22 = load ptr, ptr %6, align 8, !tbaa !17
  %23 = icmp ne ptr %22, null
  br i1 %23, label %25, label %24

24:                                               ; preds = %18
  br label %46

25:                                               ; preds = %18
  %26 = load ptr, ptr %6, align 8, !tbaa !17
  %27 = call ptr @strstr(ptr noundef %26, ptr noundef @.str.141) #12
  store ptr %27, ptr %7, align 8, !tbaa !17
  %28 = load ptr, ptr %7, align 8, !tbaa !17
  %29 = icmp ne ptr %28, null
  br i1 %29, label %31, label %30

30:                                               ; preds = %25
  br label %46

31:                                               ; preds = %25
  %32 = load ptr, ptr %6, align 8, !tbaa !17
  store i8 0, ptr %32, align 1, !tbaa !64
  %33 = load ptr, ptr %7, align 8, !tbaa !17
  store i8 0, ptr %33, align 1, !tbaa !64
  %34 = load ptr, ptr %6, align 8, !tbaa !17
  %35 = getelementptr inbounds i8, ptr %34, i64 2
  store ptr %35, ptr %6, align 8, !tbaa !17
  %36 = load ptr, ptr %9, align 8, !tbaa !21
  %37 = getelementptr inbounds nuw %struct.HTTPContext, ptr %36, i32 0, i32 40
  %38 = load ptr, ptr %5, align 8, !tbaa !17
  %39 = load ptr, ptr %6, align 8, !tbaa !17
  %40 = call i32 @av_dict_set(ptr noundef %37, ptr noundef %38, ptr noundef %39, i32 noundef 0)
  %41 = load ptr, ptr %3, align 8, !tbaa !4
  %42 = load ptr, ptr %5, align 8, !tbaa !17
  %43 = load ptr, ptr %6, align 8, !tbaa !17
  call void (ptr, i32, ptr, ...) @av_log(ptr noundef %41, i32 noundef 40, ptr noundef @.str.142, ptr noundef %42, ptr noundef %43)
  %44 = load ptr, ptr %7, align 8, !tbaa !17
  %45 = getelementptr inbounds i8, ptr %44, i64 2
  store ptr %45, ptr %8, align 8, !tbaa !17
  br label %14, !llvm.loop !154

46:                                               ; preds = %30, %24, %14
  call void @llvm.lifetime.end.p0(i64 8, ptr %9) #11
  call void @llvm.lifetime.end.p0(i64 8, ptr %8) #11
  call void @llvm.lifetime.end.p0(i64 8, ptr %7) #11
  call void @llvm.lifetime.end.p0(i64 8, ptr %6) #11
  call void @llvm.lifetime.end.p0(i64 8, ptr %5) #11
  ret void
}

; Function Attrs: nounwind uwtable
define internal i32 @http_read_stream_all(ptr noundef %0, ptr noundef %1, i32 noundef %2) #0 {
  %4 = alloca i32, align 4
  %5 = alloca ptr, align 8
  %6 = alloca ptr, align 8
  %7 = alloca i32, align 4
  %8 = alloca i32, align 4
  %9 = alloca i32, align 4
  %10 = alloca i32, align 4
  store ptr %0, ptr %5, align 8, !tbaa !4
  store ptr %1, ptr %6, align 8, !tbaa !17
  store i32 %2, ptr %7, align 4, !tbaa !34
  call void @llvm.lifetime.start.p0(i64 4, ptr %8) #11
  store i32 0, ptr %8, align 4, !tbaa !34
  br label %11

11:                                               ; preds = %35, %3
  %12 = load i32, ptr %8, align 4, !tbaa !34
  %13 = load i32, ptr %7, align 4, !tbaa !34
  %14 = icmp slt i32 %12, %13
  br i1 %14, label %15, label %36

15:                                               ; preds = %11
  call void @llvm.lifetime.start.p0(i64 4, ptr %9) #11
  %16 = load ptr, ptr %5, align 8, !tbaa !4
  %17 = load ptr, ptr %6, align 8, !tbaa !17
  %18 = load i32, ptr %8, align 4, !tbaa !34
  %19 = sext i32 %18 to i64
  %20 = getelementptr inbounds i8, ptr %17, i64 %19
  %21 = load i32, ptr %7, align 4, !tbaa !34
  %22 = load i32, ptr %8, align 4, !tbaa !34
  %23 = sub nsw i32 %21, %22
  %24 = call i32 @http_read_stream(ptr noundef %16, ptr noundef %20, i32 noundef %23)
  store i32 %24, ptr %9, align 4, !tbaa !34
  %25 = load i32, ptr %9, align 4, !tbaa !34
  %26 = icmp slt i32 %25, 0
  br i1 %26, label %27, label %29

27:                                               ; preds = %15
  %28 = load i32, ptr %9, align 4, !tbaa !34
  store i32 %28, ptr %4, align 4
  store i32 1, ptr %10, align 4
  br label %33

29:                                               ; preds = %15
  %30 = load i32, ptr %9, align 4, !tbaa !34
  %31 = load i32, ptr %8, align 4, !tbaa !34
  %32 = add nsw i32 %31, %30
  store i32 %32, ptr %8, align 4, !tbaa !34
  store i32 0, ptr %10, align 4
  br label %33

33:                                               ; preds = %29, %27
  call void @llvm.lifetime.end.p0(i64 4, ptr %9) #11
  %34 = load i32, ptr %10, align 4
  switch i32 %34, label %38 [
    i32 0, label %35
  ]

35:                                               ; preds = %33
  br label %11, !llvm.loop !153

36:                                               ; preds = %11
  %37 = load i32, ptr %8, align 4, !tbaa !34
  store i32 %37, ptr %4, align 4
  store i32 1, ptr %10, align 4
  br label %38

38:                                               ; preds = %36, %33
  call void @llvm.lifetime.end.p0(i64 4, ptr %8) #11
  %39 = load i32, ptr %4, align 4
  ret i32 %39
}

; Function Attrs: nounwind uwtable
define internal i32 @store_icy(ptr noundef %0, i32 noundef %1) #0 {
  %3 = alloca i32, align 4
  %4 = alloca ptr, align 8
  %5 = alloca i32, align 4
  %6 = alloca ptr, align 8
  %7 = alloca i64, align 8
  %8 = alloca i32, align 4
  %9 = alloca i8, align 1
  %10 = alloca i32, align 4
  %11 = alloca [4081 x i8], align 16
  %12 = alloca i32, align 4
  store ptr %0, ptr %4, align 8, !tbaa !4
  store i32 %1, ptr %5, align 4, !tbaa !34
  call void @llvm.lifetime.start.p0(i64 8, ptr %6) #11
  %13 = load ptr, ptr %4, align 8, !tbaa !4
  %14 = getelementptr inbounds nuw %struct.URLContext, ptr %13, i32 0, i32 2
  %15 = load ptr, ptr %14, align 8, !tbaa !9
  store ptr %15, ptr %6, align 8, !tbaa !21
  call void @llvm.lifetime.start.p0(i64 8, ptr %7) #11
  %16 = load ptr, ptr %6, align 8, !tbaa !21
  %17 = getelementptr inbounds nuw %struct.HTTPContext, ptr %16, i32 0, i32 37
  %18 = load i64, ptr %17, align 8, !tbaa !72
  %19 = load ptr, ptr %6, align 8, !tbaa !21
  %20 = getelementptr inbounds nuw %struct.HTTPContext, ptr %19, i32 0, i32 36
  %21 = load i64, ptr %20, align 8, !tbaa !40
  %22 = icmp ult i64 %18, %21
  br i1 %22, label %23, label %24

23:                                               ; preds = %2
  store i32 -1094995529, ptr %3, align 4
  store i32 1, ptr %8, align 4
  br label %96

24:                                               ; preds = %2
  %25 = load ptr, ptr %6, align 8, !tbaa !21
  %26 = getelementptr inbounds nuw %struct.HTTPContext, ptr %25, i32 0, i32 37
  %27 = load i64, ptr %26, align 8, !tbaa !72
  %28 = load ptr, ptr %6, align 8, !tbaa !21
  %29 = getelementptr inbounds nuw %struct.HTTPContext, ptr %28, i32 0, i32 36
  %30 = load i64, ptr %29, align 8, !tbaa !40
  %31 = sub i64 %27, %30
  store i64 %31, ptr %7, align 8, !tbaa !47
  %32 = load i64, ptr %7, align 8, !tbaa !47
  %33 = icmp ne i64 %32, 0
  br i1 %33, label %83, label %34

34:                                               ; preds = %24
  call void @llvm.lifetime.start.p0(i64 1, ptr %9) #11
  call void @llvm.lifetime.start.p0(i64 4, ptr %10) #11
  %35 = load ptr, ptr %4, align 8, !tbaa !4
  %36 = call i32 @http_read_stream_all(ptr noundef %35, ptr noundef %9, i32 noundef 1)
  store i32 %36, ptr %10, align 4, !tbaa !34
  %37 = load i32, ptr %10, align 4, !tbaa !34
  %38 = icmp slt i32 %37, 0
  br i1 %38, label %39, label %41

39:                                               ; preds = %34
  %40 = load i32, ptr %10, align 4, !tbaa !34
  store i32 %40, ptr %3, align 4
  store i32 1, ptr %8, align 4
  br label %80

41:                                               ; preds = %34
  %42 = load i8, ptr %9, align 1, !tbaa !64
  %43 = zext i8 %42 to i32
  %44 = icmp sgt i32 %43, 0
  br i1 %44, label %45, label %74

45:                                               ; preds = %41
  call void @llvm.lifetime.start.p0(i64 4081, ptr %11) #11
  call void @llvm.lifetime.start.p0(i64 4, ptr %12) #11
  %46 = load i8, ptr %9, align 1, !tbaa !64
  %47 = zext i8 %46 to i32
  %48 = mul nsw i32 %47, 16
  store i32 %48, ptr %10, align 4, !tbaa !34
  %49 = load ptr, ptr %4, align 8, !tbaa !4
  %50 = getelementptr inbounds [4081 x i8], ptr %11, i64 0, i64 0
  %51 = load i32, ptr %10, align 4, !tbaa !34
  %52 = call i32 @http_read_stream_all(ptr noundef %49, ptr noundef %50, i32 noundef %51)
  store i32 %52, ptr %12, align 4, !tbaa !34
  %53 = load i32, ptr %12, align 4, !tbaa !34
  %54 = icmp slt i32 %53, 0
  br i1 %54, label %55, label %57

55:                                               ; preds = %45
  %56 = load i32, ptr %12, align 4, !tbaa !34
  store i32 %56, ptr %3, align 4
  store i32 1, ptr %8, align 4
  br label %71

57:                                               ; preds = %45
  %58 = load i32, ptr %10, align 4, !tbaa !34
  %59 = add nsw i32 %58, 1
  %60 = sext i32 %59 to i64
  %61 = getelementptr inbounds [4081 x i8], ptr %11, i64 0, i64 %60
  store i8 0, ptr %61, align 1, !tbaa !64
  %62 = load ptr, ptr %6, align 8, !tbaa !21
  %63 = getelementptr inbounds [4081 x i8], ptr %11, i64 0, i64 0
  %64 = call i32 @av_opt_set(ptr noundef %62, ptr noundef @.str.139, ptr noundef %63, i32 noundef 0)
  store i32 %64, ptr %12, align 4, !tbaa !34
  %65 = icmp slt i32 %64, 0
  br i1 %65, label %66, label %68

66:                                               ; preds = %57
  %67 = load i32, ptr %12, align 4, !tbaa !34
  store i32 %67, ptr %3, align 4
  store i32 1, ptr %8, align 4
  br label %71

68:                                               ; preds = %57
  %69 = load ptr, ptr %4, align 8, !tbaa !4
  %70 = getelementptr inbounds [4081 x i8], ptr %11, i64 0, i64 0
  call void @update_metadata(ptr noundef %69, ptr noundef %70)
  store i32 0, ptr %8, align 4
  br label %71

71:                                               ; preds = %68, %66, %55
  call void @llvm.lifetime.end.p0(i64 4, ptr %12) #11
  call void @llvm.lifetime.end.p0(i64 4081, ptr %11) #11
  %72 = load i32, ptr %8, align 4
  switch i32 %72, label %80 [
    i32 0, label %73
  ]

73:                                               ; preds = %71
  br label %74

74:                                               ; preds = %73, %41
  %75 = load ptr, ptr %6, align 8, !tbaa !21
  %76 = getelementptr inbounds nuw %struct.HTTPContext, ptr %75, i32 0, i32 36
  store i64 0, ptr %76, align 8, !tbaa !40
  %77 = load ptr, ptr %6, align 8, !tbaa !21
  %78 = getelementptr inbounds nuw %struct.HTTPContext, ptr %77, i32 0, i32 37
  %79 = load i64, ptr %78, align 8, !tbaa !72
  store i64 %79, ptr %7, align 8, !tbaa !47
  store i32 0, ptr %8, align 4
  br label %80

80:                                               ; preds = %74, %71, %39
  call void @llvm.lifetime.end.p0(i64 4, ptr %10) #11
  call void @llvm.lifetime.end.p0(i64 1, ptr %9) #11
  %81 = load i32, ptr %8, align 4
  switch i32 %81, label %96 [
    i32 0, label %82
  ]

82:                                               ; preds = %80
  br label %83

83:                                               ; preds = %82, %24
  %84 = load i32, ptr %5, align 4, !tbaa !34
  %85 = sext i32 %84 to i64
  %86 = load i64, ptr %7, align 8, !tbaa !47
  %87 = icmp ugt i64 %85, %86
  br i1 %87, label %88, label %90

88:                                               ; preds = %83
  %89 = load i64, ptr %7, align 8, !tbaa !47
  br label %93

90:                                               ; preds = %83
  %91 = load i32, ptr %5, align 4, !tbaa !34
  %92 = sext i32 %91 to i64
  br label %93

93:                                               ; preds = %90, %88
  %94 = phi i64 [ %89, %88 ], [ %92, %90 ]
  %95 = trunc i64 %94 to i32
  store i32 %95, ptr %3, align 4
  store i32 1, ptr %8, align 4
  br label %96

96:                                               ; preds = %93, %80, %23
  call void @llvm.lifetime.end.p0(i64 8, ptr %7) #11
  call void @llvm.lifetime.end.p0(i64 8, ptr %6) #11
  %97 = load i32, ptr %3, align 4
  ret i32 %97
}

; Function Attrs: nounwind uwtable
define internal i32 @http_read(ptr noundef %0, ptr noundef %1, i32 noundef %2) #0 {
  %4 = alloca i32, align 4
  %5 = alloca ptr, align 8
  %6 = alloca ptr, align 8
  %7 = alloca i32, align 4
  %8 = alloca ptr, align 8
  %9 = alloca i32, align 4
  store ptr %0, ptr %5, align 8, !tbaa !4
  store ptr %1, ptr %6, align 8, !tbaa !17
  store i32 %2, ptr %7, align 4, !tbaa !34
  call void @llvm.lifetime.start.p0(i64 8, ptr %8) #11
  %10 = load ptr, ptr %5, align 8, !tbaa !4
  %11 = getelementptr inbounds nuw %struct.URLContext, ptr %10, i32 0, i32 2
  %12 = load ptr, ptr %11, align 8, !tbaa !9
  store ptr %12, ptr %8, align 8, !tbaa !21
  %13 = load ptr, ptr %8, align 8, !tbaa !21
  %14 = getelementptr inbounds nuw %struct.HTTPContext, ptr %13, i32 0, i32 37
  %15 = load i64, ptr %14, align 8, !tbaa !72
  %16 = icmp ugt i64 %15, 0
  br i1 %16, label %17, label %26

17:                                               ; preds = %3
  %18 = load ptr, ptr %5, align 8, !tbaa !4
  %19 = load i32, ptr %7, align 4, !tbaa !34
  %20 = call i32 @store_icy(ptr noundef %18, i32 noundef %19)
  store i32 %20, ptr %7, align 4, !tbaa !34
  %21 = load i32, ptr %7, align 4, !tbaa !34
  %22 = icmp slt i32 %21, 0
  br i1 %22, label %23, label %25

23:                                               ; preds = %17
  %24 = load i32, ptr %7, align 4, !tbaa !34
  store i32 %24, ptr %4, align 4
  store i32 1, ptr %9, align 4
  br label %42

25:                                               ; preds = %17
  br label %26

26:                                               ; preds = %25, %3
  %27 = load ptr, ptr %5, align 8, !tbaa !4
  %28 = load ptr, ptr %6, align 8, !tbaa !17
  %29 = load i32, ptr %7, align 4, !tbaa !34
  %30 = call i32 @http_read_stream(ptr noundef %27, ptr noundef %28, i32 noundef %29)
  store i32 %30, ptr %7, align 4, !tbaa !34
  %31 = load i32, ptr %7, align 4, !tbaa !34
  %32 = icmp sgt i32 %31, 0
  br i1 %32, label %33, label %40

33:                                               ; preds = %26
  %34 = load i32, ptr %7, align 4, !tbaa !34
  %35 = sext i32 %34 to i64
  %36 = load ptr, ptr %8, align 8, !tbaa !21
  %37 = getelementptr inbounds nuw %struct.HTTPContext, ptr %36, i32 0, i32 36
  %38 = load i64, ptr %37, align 8, !tbaa !40
  %39 = add i64 %38, %35
  store i64 %39, ptr %37, align 8, !tbaa !40
  br label %40

40:                                               ; preds = %33, %26
  %41 = load i32, ptr %7, align 4, !tbaa !34
  store i32 %41, ptr %4, align 4
  store i32 1, ptr %9, align 4
  br label %42

42:                                               ; preds = %40, %23
  call void @llvm.lifetime.end.p0(i64 8, ptr %8) #11
  %43 = load i32, ptr %4, align 4
  ret i32 %43
}