; Function Attrs: nounwind uwtable
define internal i32 @http_read(ptr noundef %0, ptr noundef %1, i32 noundef %2) #2 {
  %4 = alloca i8, align 1
  %5 = alloca [4081 x i8], align 16
  %6 = getelementptr inbounds nuw i8, ptr %0, i64 16
  %7 = load ptr, ptr %6, align 8, !tbaa !4
  %8 = getelementptr inbounds nuw i8, ptr %7, i64 10152
  %9 = load i64, ptr %8, align 8, !tbaa !99
  %.not = icmp eq i64 %9, 0
  br i1 %.not, label %65, label %10

10:                                               ; preds = %3
  %11 = getelementptr inbounds nuw i8, ptr %7, i64 10144
  %12 = load i64, ptr %11, align 8, !tbaa !33
  %13 = icmp ult i64 %9, %12
  br i1 %13, label %store_icy.exit.thread, label %14

14:                                               ; preds = %10
  %15 = sub nuw i64 %9, %12
  %.not.i = icmp eq i64 %15, 0
  br i1 %.not.i, label %16, label %store_icy.exit

16:                                               ; preds = %14
  call void @llvm.lifetime.start.p0(i64 1, ptr nonnull %4) #15
  br label %17

17:                                               ; preds = %19, %16
  %.014.i.i = phi i32 [ 0, %16 ], [ %25, %19 ]
  %18 = icmp slt i32 %.014.i.i, 1
  br i1 %18, label %19, label %http_read_stream_all.exit.i

19:                                               ; preds = %17
  %20 = zext nneg i32 %.014.i.i to i64
  %21 = getelementptr inbounds nuw i8, ptr %4, i64 %20
  %22 = sub nsw i32 1, %.014.i.i
  %23 = call fastcc i32 @http_read_stream(ptr noundef %0, ptr noundef nonnull %21, i32 noundef %22)
  %24 = icmp sgt i32 %23, -1
  %25 = add nuw nsw i32 %23, %.014.i.i
  br i1 %24, label %17, label %.thread.i, !llvm.loop !100

http_read_stream_all.exit.i:                      ; preds = %17
  %26 = load i8, ptr %4, align 1, !tbaa !44
  %.not37.i = icmp eq i8 %26, 0
  br i1 %.not37.i, label %59, label %27

27:                                               ; preds = %http_read_stream_all.exit.i
  call void @llvm.lifetime.start.p0(i64 4081, ptr nonnull %5) #15
  %28 = zext i8 %26 to i32
  %29 = shl nuw nsw i32 %28, 4
  br label %30

30:                                               ; preds = %32, %27
  %.014.i38.i = phi i32 [ 0, %27 ], [ %38, %32 ]
  %31 = icmp slt i32 %.014.i38.i, %29
  br i1 %31, label %32, label %http_read_stream_all.exit40.i

32:                                               ; preds = %30
  %33 = zext nneg i32 %.014.i38.i to i64
  %34 = getelementptr inbounds nuw i8, ptr %5, i64 %33
  %35 = sub nsw i32 %29, %.014.i38.i
  %36 = call fastcc i32 @http_read_stream(ptr noundef %0, ptr noundef nonnull %34, i32 noundef %35)
  %37 = icmp sgt i32 %36, -1
  %38 = add nuw nsw i32 %36, %.014.i38.i
  br i1 %37, label %30, label %update_metadata.exit.i, !llvm.loop !100

http_read_stream_all.exit40.i:                    ; preds = %30
  %39 = icmp slt i32 %.014.i38.i, 0
  br i1 %39, label %update_metadata.exit.i, label %40

40:                                               ; preds = %http_read_stream_all.exit40.i
  %41 = or disjoint i32 %29, 1
  %42 = zext nneg i32 %41 to i64
  %43 = getelementptr inbounds nuw [4081 x i8], ptr %5, i64 0, i64 %42
  store i8 0, ptr %43, align 1, !tbaa !44
  %44 = call i32 @av_opt_set(ptr noundef %7, ptr noundef nonnull @.str.139, ptr noundef nonnull %5, i32 noundef 0) #15
  %45 = icmp slt i32 %44, 0
  br i1 %45, label %update_metadata.exit.i, label %46

46:                                               ; preds = %40
  %47 = load i8, ptr %5, align 16, !tbaa !44
  %.not22.i.i = icmp eq i8 %47, 0
  br i1 %.not22.i.i, label %update_metadata.exit.thread.i, label %.lr.ph.i.i

.lr.ph.i.i:                                       ; preds = %46
  %48 = load ptr, ptr %6, align 8, !tbaa !4
  %49 = getelementptr inbounds nuw i8, ptr %48, i64 10176
  br label %50

50:                                               ; preds = %54, %.lr.ph.i.i
  %.023.i.i = phi ptr [ %5, %.lr.ph.i.i ], [ %57, %54 ]
  %51 = call ptr @strstr(ptr noundef nonnull dereferenceable(1) %.023.i.i, ptr noundef nonnull dereferenceable(1) @.str.140) #16
  %.not20.i.i = icmp eq ptr %51, null
  br i1 %.not20.i.i, label %update_metadata.exit.thread.i, label %52

52:                                               ; preds = %50
  %53 = call ptr @strstr(ptr noundef nonnull dereferenceable(1) %51, ptr noundef nonnull dereferenceable(1) @.str.141) #16
  %.not21.i.i = icmp eq ptr %53, null
  br i1 %.not21.i.i, label %update_metadata.exit.thread.i, label %54

54:                                               ; preds = %52
  store i8 0, ptr %51, align 1, !tbaa !44
  store i8 0, ptr %53, align 1, !tbaa !44
  %55 = getelementptr inbounds nuw i8, ptr %51, i64 2
  %56 = call i32 @av_dict_set(ptr noundef nonnull %49, ptr noundef nonnull %.023.i.i, ptr noundef nonnull %55, i32 noundef 0) #15
  call void (ptr, i32, ptr, ...) @av_log(ptr noundef %0, i32 noundef 40, ptr noundef nonnull @.str.142, ptr noundef nonnull %.023.i.i, ptr noundef nonnull %55) #15
  %57 = getelementptr inbounds nuw i8, ptr %53, i64 2
  %58 = load i8, ptr %57, align 1, !tbaa !44
  %.not.i.i = icmp eq i8 %58, 0
  br i1 %.not.i.i, label %update_metadata.exit.thread.i, label %50, !llvm.loop !101

update_metadata.exit.thread.i:                    ; preds = %54, %52, %50, %46
  call void @llvm.lifetime.end.p0(i64 4081, ptr nonnull %5) #15
  br label %59

update_metadata.exit.i:                           ; preds = %32, %40, %http_read_stream_all.exit40.i
  %.3.i = phi i32 [ %.014.i38.i, %http_read_stream_all.exit40.i ], [ %44, %40 ], [ %36, %32 ]
  call void @llvm.lifetime.end.p0(i64 4081, ptr nonnull %5) #15
  br label %.thread.i

.thread.i:                                        ; preds = %19, %update_metadata.exit.i
  %.129.ph.i = phi i32 [ %.3.i, %update_metadata.exit.i ], [ %23, %19 ]
  call void @llvm.lifetime.end.p0(i64 1, ptr nonnull %4) #15
  br label %store_icy.exit.thread

59:                                               ; preds = %update_metadata.exit.thread.i, %http_read_stream_all.exit.i
  store i64 0, ptr %11, align 8, !tbaa !33
  %60 = load i64, ptr %8, align 8, !tbaa !99
  call void @llvm.lifetime.end.p0(i64 1, ptr nonnull %4) #15
  br label %store_icy.exit

store_icy.exit:                                   ; preds = %14, %59
  %.026.i = phi i64 [ %15, %14 ], [ %60, %59 ]
  %61 = sext i32 %2 to i64
  %62 = call i64 @llvm.umin.i64(i64 %.026.i, i64 %61)
  %63 = trunc i64 %62 to i32
  %64 = icmp slt i32 %63, 0
  br i1 %64, label %store_icy.exit.thread, label %65

65:                                               ; preds = %store_icy.exit, %3
  %.013 = phi i32 [ %63, %store_icy.exit ], [ %2, %3 ]
  %66 = call fastcc i32 @http_read_stream(ptr noundef %0, ptr noundef %1, i32 noundef %.013)
  %67 = icmp sgt i32 %66, 0
  br i1 %67, label %68, label %store_icy.exit.thread

68:                                               ; preds = %65
  %69 = zext nneg i32 %66 to i64
  %70 = getelementptr inbounds nuw i8, ptr %7, i64 10144
  %71 = load i64, ptr %70, align 8, !tbaa !33
  %72 = add i64 %71, %69
  store i64 %72, ptr %70, align 8, !tbaa !33
  br label %store_icy.exit.thread

store_icy.exit.thread:                            ; preds = %.thread.i, %10, %65, %68, %store_icy.exit
  %.0 = phi i32 [ %63, %store_icy.exit ], [ %66, %68 ], [ %66, %65 ], [ %.129.ph.i, %.thread.i ], [ -1094995529, %10 ]
  ret i32 %.0
}